target datalayout = "e-m:e-p270:32:32-p271:32:32-p272:64:64-i64:64-i128:128-f80:128-n8:16:32:64-S128"
target triple = "x86_64-pc-linux-gnu"

%class.AdaptiveWeightedAverage = type { float, i32, i32, i8, float }
%class.ThreadLocalAllocBuffer = type <{ ptr, ptr, ptr, ptr, ptr, i64, i64, i64, i64, i32, i32, i32, i32, i64, %class.AdaptiveWeightedAverage, [4 x i8] }>
%class.Thread = type { %class.ThreadShadow.base, i64, [43 x i64], ptr, ptr, i32, ptr, i64, i64, %class.ThreadLocalAllocBuffer, i64, %class.ThreadHeapSampler, %class.ThreadStatisticalInfo, %class.JfrThreadLocal, ptr, ptr, ptr, ptr, ptr, ptr, i64, i32, i32, ptr, i32, i32, i32, i32, i8, ptr }
%class.ThreadShadow.base = type <{ ptr, ptr, ptr, i32 }>
%class.ThreadHeapSampler = type { i64 }
%class.ThreadStatisticalInfo = type { i64, i64 }
%class.JfrThreadLocal = type <{ ptr, ptr, ptr, ptr, ptr, ptr, ptr, ptr, ptr, ptr, %class.RefCountHandle, i64, i64, i64, i64, i64, i64, i64, i64, i64, i64, i64, i32, i32, i32, i16, i8, i8, i8, i8, i8, [5 x i8] }>
%class.RefCountHandle = type { ptr }
%class.anon = type { i8 }
%class.anon.4 = type { i8 }

@_ZN22ThreadLocalAllocBuffer9_max_sizeE = hidden global i64 0, align 8
@_ZN22ThreadLocalAllocBuffer32_reserve_for_allocation_prefetchE = hidden global i32 0, align 4
@_ZN22ThreadLocalAllocBuffer15_target_refillsE = hidden global i32 0, align 4
@MinTLABSize = external global i64, align 8
@TLABSize = external global i64, align 8
@_ZN21ThreadLocalAllocStats23_allocating_threads_avgE = hidden global %class.AdaptiveWeightedAverage zeroinitializer, align 4
@_ZN8Universe14_collectedHeapE = external global ptr, align 8
@_ZN13CollectedHeap22_lab_alignment_reserveE = external global i64, align 8
@MinObjAlignment = external global i32, align 4

; Function Attrs: mustprogress nounwind uwtable
define linkonce_odr hidden noundef i64 @_ZN13CollectedHeap21lab_alignment_reserveEv() #1 comdat align 2 {
  %1 = load i64, ptr @_ZN13CollectedHeap22_lab_alignment_reserveE, align 8
  ret i64 %1
}

; Function Attrs: mustprogress nounwind uwtable
define hidden noundef i64 @_ZN22ThreadLocalAllocBuffer11end_reserveEv() #1 align 2 {
  %1 = alloca i64, align 8
  %2 = call noundef i64 @_ZN13CollectedHeap21lab_alignment_reserveEv()
  store i64 %2, ptr %1, align 8
  %3 = load i64, ptr %1, align 8
  %4 = load i32, ptr @_ZN22ThreadLocalAllocBuffer32_reserve_for_allocation_prefetchE, align 4
  %5 = sext i32 %4 to i64
  %6 = call noundef i64 @_Z4MAX2ImET_S0_S0_(i64 noundef %3, i64 noundef %5)
  ret i64 %6
}

; Function Attrs: mustprogress nounwind uwtable
define linkonce_odr hidden noundef i64 @_Z10align_downImiTnNSt9enable_ifIXcvbsr3std11is_integralIT_EE5valueEiE4typeELi0EES1_S1_T0_(i64 noundef %0, i32 noundef %1) #1 comdat {
  %3 = alloca i64, align 8
  %4 = alloca i32, align 4
  %5 = alloca i64, align 8
  store i64 %0, ptr %3, align 8
  store i32 %1, ptr %4, align 4
  %6 = load i64, ptr %3, align 8
  %7 = load i32, ptr %4, align 4
  %8 = call noundef i32 @_ZL14alignment_maskIiTnNSt9enable_ifIXcvbsr3std11is_integralIT_EE5valueEiE4typeELi0EES1_S1_(i32 noundef %7)
  %9 = sext i32 %8 to i64
  %10 = xor i64 %9, -1
  %11 = and i64 %6, %10
  store i64 %11, ptr %5, align 8
  %12 = load i64, ptr %5, align 8
  ret i64 %12
}

; Function Attrs: mustprogress nounwind uwtable
define linkonce_odr hidden noundef i64 @_Z12checked_castImmET_T0_(i64 noundef %0) #1 comdat {
  %2 = alloca i64, align 8
  %3 = alloca i64, align 8
  store i64 %0, ptr %2, align 8
  %4 = load i64, ptr %2, align 8
  store i64 %4, ptr %3, align 8
  %5 = load i64, ptr %3, align 8
  ret i64 %5
}

; Function Attrs: mustprogress nounwind uwtable
define internal noundef i32 @_ZL14alignment_maskIiTnNSt9enable_ifIXcvbsr3std11is_integralIT_EE5valueEiE4typeELi0EES1_S1_(i32 noundef %0) #1 {
  %2 = alloca i32, align 4
  store i32 %0, ptr %2, align 4
  %3 = load i32, ptr %2, align 4
  %4 = sub nsw i32 %3, 1
  ret i32 %4
}

; Function Attrs: mustprogress nounwind uwtable
define linkonce_odr hidden noundef i32 @_Zpl8ByteSizeS_(i32 noundef %0, i32 noundef %1) #1 comdat {
  %3 = alloca i32, align 4
  %4 = alloca i32, align 4
  store i32 %0, ptr %3, align 4
  store i32 %1, ptr %4, align 4
  %5 = load i32, ptr %3, align 4
  %6 = call noundef i32 @_Z8in_bytes8ByteSize(i32 noundef %5)
  %7 = load i32, ptr %4, align 4
  %8 = call noundef i32 @_Z8in_bytes8ByteSize(i32 noundef %7)
  %9 = add nsw i32 %6, %8
  %10 = call noundef i32 @_Z11in_ByteSizei(i32 noundef %9)
  ret i32 %10
}

; Function Attrs: mustprogress nounwind uwtable
define linkonce_odr hidden noundef i64 @_ZZN6Thread17tlab_start_offsetEvENKUlvE_clEv(ptr noundef nonnull align 1 dereferenceable(1) %0) #1 comdat align 2 {
  %2 = alloca ptr, align 8
  %3 = alloca [888 x i8], align 16
  %4 = alloca ptr, align 8
  %5 = alloca ptr, align 8
  store ptr %0, ptr %2, align 8
  %6 = getelementptr inbounds [888 x i8], ptr %3, i64 0, i64 0
  store ptr %6, ptr %4, align 8
  %7 = load ptr, ptr %4, align 8
  %8 = getelementptr inbounds %class.Thread, ptr %7, i32 0, i32 9
  store ptr %8, ptr %5, align 8
  %9 = load ptr, ptr %5, align 8
  %10 = getelementptr inbounds [888 x i8], ptr %3, i64 0, i64 0
  %11 = ptrtoint ptr %9 to i64
  %12 = ptrtoint ptr %10 to i64
  %13 = sub i64 %11, %12
  ret i64 %13
}

; Function Attrs: mustprogress nounwind uwtable
define linkonce_odr hidden noundef i32 @_Z11in_ByteSizei(i32 noundef %0) #1 comdat {
  %2 = alloca i32, align 4
  store i32 %0, ptr %2, align 4
  %3 = load i32, ptr %2, align 4
  ret i32 %3
}

; Function Attrs: mustprogress nounwind uwtable
define linkonce_odr hidden noundef i64 @_ZZN22ThreadLocalAllocBuffer12start_offsetEvENKUlvE_clEv(ptr noundef nonnull align 1 dereferenceable(1) %0) #1 comdat align 2 {
  %2 = alloca ptr, align 8
  %3 = alloca [120 x i8], align 16
  %4 = alloca ptr, align 8
  %5 = alloca ptr, align 8
  store ptr %0, ptr %2, align 8
  %6 = getelementptr inbounds [120 x i8], ptr %3, i64 0, i64 0
  store ptr %6, ptr %4, align 8
  %7 = load ptr, ptr %4, align 8
  %8 = getelementptr inbounds %class.ThreadLocalAllocBuffer, ptr %7, i32 0, i32 0
  store ptr %8, ptr %5, align 8
  %9 = load ptr, ptr %5, align 8
  %10 = getelementptr inbounds [120 x i8], ptr %3, i64 0, i64 0
  %11 = ptrtoint ptr %9 to i64
  %12 = ptrtoint ptr %10 to i64
  %13 = sub i64 %11, %12
  ret i64 %13
}

; Function Attrs: mustprogress nounwind uwtable
define linkonce_odr hidden noundef i64 @_ZN22ThreadLocalAllocBuffer17alignment_reserveEv() #1 comdat align 2 {
  %1 = call noundef i64 @_ZN22ThreadLocalAllocBuffer11end_reserveEv()
  %2 = call noundef i64 @_Z17align_object_sizeImET_S0_(i64 noundef %1)
  ret i64 %2
}

; Function Attrs: mustprogress nounwind uwtable
define linkonce_odr hidden noundef i64 @_Z8align_upImiTnNSt9enable_ifIXcvbsr3std11is_integralIT_EE5valueEiE4typeELi0EES1_S1_T0_(i64 noundef %0, i32 noundef %1) #1 comdat {
  %3 = alloca i64, align 8
  %4 = alloca i32, align 4
  %5 = alloca i64, align 8
  store i64 %0, ptr %3, align 8
  store i32 %1, ptr %4, align 4
  %6 = load i64, ptr %3, align 8
  %7 = load i32, ptr %4, align 4
  %8 = call noundef i32 @_ZL14alignment_maskIiTnNSt9enable_ifIXcvbsr3std11is_integralIT_EE5valueEiE4typeELi0EES1_S1_(i32 noundef %7)
  %9 = sext i32 %8 to i64
  %10 = add i64 %6, %9
  %11 = call noundef i64 @_Z12checked_castImmET_T0_(i64 noundef %10)
  store i64 %11, ptr %5, align 8
  %12 = load i64, ptr %5, align 8
  %13 = load i32, ptr %4, align 4
  %14 = call noundef i64 @_Z10align_downImiTnNSt9enable_ifIXcvbsr3std11is_integralIT_EE5valueEiE4typeELi0EES1_S1_T0_(i64 noundef %12, i32 noundef %13)
  ret i64 %14
}

; Function Attrs: mustprogress nounwind uwtable
define linkonce_odr hidden noundef i32 @_ZN6Thread17tlab_start_offsetEv() #1 comdat align 2 {
  %1 = alloca %class.anon.4, align 1
  %2 = call noundef i64 @_ZZN6Thread17tlab_start_offsetEvENKUlvE_clEv(ptr noundef nonnull align 1 dereferenceable(1) %1)
  %3 = trunc i64 %2 to i32
  %4 = call noundef i32 @_Z11in_ByteSizei(i32 noundef %3)
  %5 = call noundef i32 @_ZN22ThreadLocalAllocBuffer12start_offsetEv()
  %6 = call noundef i32 @_Zpl8ByteSizeS_(i32 noundef %4, i32 noundef %5)
  ret i32 %6
}

; Function Attrs: mustprogress nounwind uwtable
define linkonce_odr hidden noundef i32 @_Z8in_bytes8ByteSize(i32 noundef %0) #1 comdat {
  %2 = alloca i32, align 4
  store i32 %0, ptr %2, align 4
  %3 = load i32, ptr %2, align 4
  ret i32 %3
}

; Function Attrs: mustprogress nounwind uwtable
define linkonce_odr hidden noundef i32 @_ZN22ThreadLocalAllocBuffer12start_offsetEv() #1 comdat align 2 {
  %1 = alloca %class.anon, align 1
  %2 = call noundef i64 @_ZZN22ThreadLocalAllocBuffer12start_offsetEvENKUlvE_clEv(ptr noundef nonnull align 1 dereferenceable(1) %1)
  %3 = trunc i64 %2 to i32
  %4 = call noundef i32 @_Z11in_ByteSizei(i32 noundef %3)
  ret i32 %4
}

; Function Attrs: mustprogress nounwind uwtable
define linkonce_odr hidden noundef i32 @_Z4MAX2IjET_S0_S0_(i32 noundef %0, i32 noundef %1) #1 comdat {
  %3 = alloca i32, align 4
  %4 = alloca i32, align 4
  store i32 %0, ptr %3, align 4
  store i32 %1, ptr %4, align 4
  %5 = load i32, ptr %3, align 4
  %6 = load i32, ptr %4, align 4
  %7 = icmp ugt i32 %5, %6
  br i1 %7, label %8, label %10

8:                                                ; preds = %2
  %9 = load i32, ptr %3, align 4
  br label %12

10:                                               ; preds = %2
  %11 = load i32, ptr %4, align 4
  br label %12

12:                                               ; preds = %10, %8
  %13 = phi i32 [ %9, %8 ], [ %11, %10 ]
  ret i32 %13
}

; Function Attrs: mustprogress nounwind uwtable
define linkonce_odr hidden noundef float @_ZNK23AdaptiveWeightedAverage7averageEv(ptr noundef nonnull align 4 dereferenceable(20) %0) #1 comdat align 2 {
  %2 = alloca ptr, align 8
  store ptr %0, ptr %2, align 8
  %3 = load ptr, ptr %2, align 8
  %4 = getelementptr inbounds %class.AdaptiveWeightedAverage, ptr %3, i32 0, i32 0
  %5 = load float, ptr %4, align 4
  ret float %5
}

; Function Attrs: mustprogress nounwind uwtable
define linkonce_odr hidden noundef i64 @_Z4MIN2ImET_S0_S0_(i64 noundef %0, i64 noundef %1) #1 comdat {
  %3 = alloca i64, align 8
  %4 = alloca i64, align 8
  store i64 %0, ptr %3, align 8
  store i64 %1, ptr %4, align 8
  %5 = load i64, ptr %3, align 8
  %6 = load i64, ptr %4, align 8
  %7 = icmp ult i64 %5, %6
  br i1 %7, label %8, label %10

8:                                                ; preds = %2
  %9 = load i64, ptr %3, align 8
  br label %12

10:                                               ; preds = %2
  %11 = load i64, ptr %4, align 8
  br label %12

12:                                               ; preds = %10, %8
  %13 = phi i64 [ %9, %8 ], [ %11, %10 ]
  ret i64 %13
}

; Function Attrs: mustprogress nounwind uwtable
define linkonce_odr hidden noundef i64 @_ZN22ThreadLocalAllocBuffer8max_sizeEv() #1 comdat align 2 {
  %1 = load i64, ptr @_ZN22ThreadLocalAllocBuffer9_max_sizeE, align 8
  ret i64 %1
}

; Function Attrs: mustprogress nounwind uwtable
define linkonce_odr hidden noundef i64 @_Z4MAX2ImET_S0_S0_(i64 noundef %0, i64 noundef %1) #1 comdat {
  %3 = alloca i64, align 8
  %4 = alloca i64, align 8
  store i64 %0, ptr %3, align 8
  store i64 %1, ptr %4, align 8
  %5 = load i64, ptr %3, align 8
  %6 = load i64, ptr %4, align 8
  %7 = icmp ugt i64 %5, %6
  br i1 %7, label %8, label %10

8:                                                ; preds = %2
  %9 = load i64, ptr %3, align 8
  br label %12

10:                                               ; preds = %2
  %11 = load i64, ptr %4, align 8
  br label %12

12:                                               ; preds = %10, %8
  %13 = phi i64 [ %9, %8 ], [ %11, %10 ]
  ret i64 %13
}

; Function Attrs: mustprogress nounwind uwtable
define hidden noundef i64 @_ZN22ThreadLocalAllocBuffer8min_sizeEv() #1 align 2 {
  %1 = load i64, ptr @MinTLABSize, align 8
  %2 = udiv i64 %1, 8
  %3 = call noundef i64 @_Z17align_object_sizeImET_S0_(i64 noundef %2)
  %4 = call noundef i64 @_ZN22ThreadLocalAllocBuffer17alignment_reserveEv()
  %5 = add i64 %3, %4
  ret i64 %5
}

; Function Attrs: mustprogress nounwind uwtable
define linkonce_odr hidden noundef i64 @_Z17align_object_sizeImET_S0_(i64 noundef %0) #1 comdat {
  %2 = alloca i64, align 8
  store i64 %0, ptr %2, align 8
  %3 = load i64, ptr %2, align 8
  %4 = load i32, ptr @MinObjAlignment, align 4
  %5 = call noundef i64 @_Z8align_upImiTnNSt9enable_ifIXcvbsr3std11is_integralIT_EE5valueEiE4typeELi0EES1_S1_T0_(i64 noundef %3, i32 noundef %4)
  ret i64 %5
}

; Function Attrs: mustprogress nounwind uwtable
define linkonce_odr hidden noundef i32 @_ZN22ThreadLocalAllocBuffer14target_refillsEv() #1 comdat align 2 {
  %1 = load i32, ptr @_ZN22ThreadLocalAllocBuffer15_target_refillsE, align 4
  ret i32 %1
}

; Function Attrs: mustprogress nounwind uwtable
define hidden noundef ptr @_ZN22ThreadLocalAllocBuffer6threadEv(ptr noundef nonnull align 8 dereferenceable(116) %0) #1 align 2 {
  %2 = alloca ptr, align 8
  store ptr %0, ptr %2, align 8
  %3 = load ptr, ptr %2, align 8
  %4 = call noundef i32 @_ZN22ThreadLocalAllocBuffer12start_offsetEv()
  %5 = call noundef i32 @_Z8in_bytes8ByteSize(i32 noundef %4)
  %6 = sext i32 %5 to i64
  %7 = getelementptr inbounds i8, ptr %3, i64 %6
  %8 = call noundef i32 @_ZN6Thread17tlab_start_offsetEv()
  %9 = call noundef i32 @_Z8in_bytes8ByteSize(i32 noundef %8)
  %10 = sext i32 %9 to i64
  %11 = sub i64 0, %10
  %12 = getelementptr inbounds i8, ptr %7, i64 %11
  ret ptr %12
}

; Function Attrs: mustprogress nounwind uwtable
define linkonce_odr hidden noundef ptr @_ZN8Universe4heapEv() #1 comdat align 2 {
  %1 = load ptr, ptr @_ZN8Universe14_collectedHeapE, align 8
  ret ptr %1
}

; Function Attrs: mustprogress nounwind uwtable
define hidden noundef i32 @_ZN21ThreadLocalAllocStats22allocating_threads_avgEv() #1 align 2 {
  %1 = call noundef float @_ZNK23AdaptiveWeightedAverage7averageEv(ptr noundef nonnull align 4 dereferenceable(20) @_ZN21ThreadLocalAllocStats23_allocating_threads_avgE)
  %2 = fpext float %1 to double
  %3 = fadd double %2, 5.000000e-01
  %4 = fptoui double %3 to i32
  %5 = call noundef i32 @_Z4MAX2IjET_S0_S0_(i32 noundef %4, i32 noundef 1)
  ret i32 %5
}

; Function Attrs: mustprogress nounwind uwtable
define hidden noundef i64 @_ZN22ThreadLocalAllocBuffer20initial_desired_sizeEv(ptr noundef nonnull align 8 dereferenceable(116) %0) #1 align 2 {
  %2 = alloca ptr, align 8
  %3 = alloca i64, align 8
  %4 = alloca i32, align 4
  store ptr %0, ptr %2, align 8
  %5 = load ptr, ptr %2, align 8
  store i64 0, ptr %3, align 8
  %6 = load i64, ptr @TLABSize, align 8
  %7 = icmp ugt i64 %6, 0
  br i1 %7, label %8, label %11

8:                                                ; preds = %1
  %9 = load i64, ptr @TLABSize, align 8
  %10 = udiv i64 %9, 8
  store i64 %10, ptr %3, align 8
  br label %27

11:                                               ; preds = %1
  %12 = call noundef i32 @_ZN21ThreadLocalAllocStats22allocating_threads_avgEv()
  store i32 %12, ptr %4, align 4
  %13 = call noundef ptr @_ZN8Universe4heapEv()
  %14 = call noundef ptr @_ZN22ThreadLocalAllocBuffer6threadEv(ptr noundef nonnull align 8 dereferenceable(116) %5)
  %15 = load ptr, ptr %13, align 8
  %16 = getelementptr inbounds ptr, ptr %15, i64 20
  %17 = load ptr, ptr %16, align 8
  %18 = call noundef i64 %17(ptr noundef nonnull align 8 dereferenceable(104) %13, ptr noundef %14)
  %19 = udiv i64 %18, 8
  %20 = load i32, ptr %4, align 4
  %21 = call noundef i32 @_ZN22ThreadLocalAllocBuffer14target_refillsEv()
  %22 = mul i32 %20, %21
  %23 = zext i32 %22 to i64
  %24 = udiv i64 %19, %23
  store i64 %24, ptr %3, align 8
  %25 = load i64, ptr %3, align 8
  %26 = call noundef i64 @_Z17align_object_sizeImET_S0_(i64 noundef %25)
  store i64 %26, ptr %3, align 8
  br label %27

27:                                               ; preds = %11, %8
  %28 = load i64, ptr %3, align 8
  %29 = call noundef i64 @_ZN22ThreadLocalAllocBuffer8min_sizeEv()
  %30 = call noundef i64 @_Z4MAX2ImET_S0_S0_(i64 noundef %28, i64 noundef %29)
  %31 = call noundef i64 @_ZN22ThreadLocalAllocBuffer8max_sizeEv()
  %32 = call noundef i64 @_Z4MIN2ImET_S0_S0_(i64 noundef %30, i64 noundef %31)
  store i64 %32, ptr %3, align 8
  %33 = load i64, ptr %3, align 8
  ret i64 %33
}