; Function Attrs: mustprogress nounwind uwtable
define hidden noundef i64 @_ZN22ThreadLocalAllocBuffer20initial_desired_sizeEv(ptr noundef nonnull align 8 dereferenceable(116) %0) local_unnamed_addr #3 align 2 {
  %2 = load i64, ptr @TLABSize, align 8
  %.not = icmp eq i64 %2, 0
  br i1 %.not, label %5, label %3

3:                                                ; preds = %1
  %4 = lshr i64 %2, 3
  %.pre = load i32, ptr @MinObjAlignment, align 4
  %.pre5 = add nsw i32 %.pre, -1
  %.pre6 = sext i32 %.pre5 to i64
  %.pre8 = sub i32 0, %.pre
  %.pre10 = sext i32 %.pre8 to i64
  br label %29

5:                                                ; preds = %1
  %6 = load float, ptr @_ZN21ThreadLocalAllocStats23_allocating_threads_avgE, align 4
  %7 = fpext float %6 to double
  %8 = fadd double %7, 5.000000e-01
  %9 = fptoui double %8 to i32
  %10 = tail call noundef i32 @llvm.umax.i32(i32 %9, i32 1)
  %11 = load ptr, ptr @_ZN8Universe14_collectedHeapE, align 8
  %12 = getelementptr inbounds i8, ptr %0, i64 -432
  %13 = load ptr, ptr %11, align 8
  %14 = getelementptr inbounds i8, ptr %13, i64 160
  %15 = load ptr, ptr %14, align 8
  %16 = tail call noundef i64 %15(ptr noundef nonnull align 8 dereferenceable(104) %11, ptr noundef nonnull %12) #16
  %17 = lshr i64 %16, 3
  %18 = load i32, ptr @_ZN22ThreadLocalAllocBuffer15_target_refillsE, align 4
  %19 = mul i32 %18, %10
  %20 = zext i32 %19 to i64
  %21 = udiv i64 %17, %20
  %22 = load i32, ptr @MinObjAlignment, align 4
  %23 = add nsw i32 %22, -1
  %24 = sext i32 %23 to i64
  %25 = add nsw i64 %21, %24
  %26 = sub i32 0, %22
  %27 = sext i32 %26 to i64
  %28 = and i64 %25, %27
  br label %29

29:                                               ; preds = %5, %3
  %.pre-phi11 = phi i64 [ %27, %5 ], [ %.pre10, %3 ]
  %.pre-phi7 = phi i64 [ %24, %5 ], [ %.pre6, %3 ]
  %.0 = phi i64 [ %28, %5 ], [ %4, %3 ]
  %30 = load i64, ptr @MinTLABSize, align 8
  %31 = lshr i64 %30, 3
  %32 = add nsw i64 %31, %.pre-phi7
  %33 = and i64 %32, %.pre-phi11
  %34 = load i64, ptr @_ZN13CollectedHeap22_lab_alignment_reserveE, align 8
  %35 = load i32, ptr @_ZN22ThreadLocalAllocBuffer32_reserve_for_allocation_prefetchE, align 4
  %36 = sext i32 %35 to i64
  %37 = tail call noundef i64 @llvm.umax.i64(i64 %34, i64 %36)
  %38 = add i64 %37, %.pre-phi7
  %39 = and i64 %38, %.pre-phi11
  %40 = add i64 %39, %33
  %41 = tail call noundef i64 @llvm.umax.i64(i64 %.0, i64 %40)
  %42 = load i64, ptr @_ZN22ThreadLocalAllocBuffer9_max_sizeE, align 8
  %43 = tail call noundef i64 @llvm.umin.i64(i64 %41, i64 %42)
  ret i64 %43
}